target datalayout = "e-m:e-p270:32:32-p271:32:32-p272:64:64-i64:64-i128:128-f80:128-n8:16:32:64-S128"
target triple = "x86_64-pc-linux-gnu"

%struct.ARKodeMemRec = type { ptr, double, ptr, i32, i32, double, double, ptr, i32, double, ptr, i32, i32, ptr, ptr, i32, ptr, ptr, i32, ptr, ptr, ptr, ptr, ptr, ptr, ptr, ptr, ptr, ptr, ptr, ptr, ptr, ptr, ptr, i32, ptr, ptr, i32, ptr, i32, ptr, ptr, ptr, ptr, ptr, ptr, ptr, ptr, ptr, ptr, ptr, ptr, ptr, ptr, ptr, ptr, ptr, ptr, ptr, ptr, ptr, ptr, ptr, ptr, ptr, ptr, i32, ptr, ptr, ptr, ptr, ptr, ptr, ptr, i32, ptr, ptr, ptr, i32, ptr, ptr, ptr, ptr, ptr, ptr, ptr, i32, i32, i32, i32, double, double, double, double, double, double, double, double, double, double, i32, ptr, i64, i32, i32, i32, i32, i64, i64, i32, i64, i64, i64, i64, i64, i64, i64, double, double, double, double, double, i32, double, double, i32, i32, i32, i32, i32, i32, i32, i32, ptr, i32, ptr, ptr, ptr, ptr, i32, i32, i32 }

@.str = private unnamed_addr constant [115 x i8] c"generated/home/dtcxzyw/WorkSpace/Projects/compilers/llvm-opt-benchmark/bench/sundials/sundials/src/arkode/arkode.c\00", align 1
@.str.11 = private unnamed_addr constant [33 x i8] c"Allocation of arkode_mem failed.\00", align 1
@__func__.arkCreate = private unnamed_addr constant [10 x i8] c"arkCreate\00", align 1
@.str.80 = private unnamed_addr constant [23 x i8] c"sunctx = NULL illegal.\00", align 1
@.str.81 = private unnamed_addr constant [47 x i8] c"Allocation of step adaptivity structure failed\00", align 1
@.str.82 = private unnamed_addr constant [37 x i8] c"Error setting default solver options\00", align 1

; Function Attrs: nounwind uwtable
define ptr @arkCreate(ptr noundef %0) #0 {
  %2 = alloca ptr, align 8
  %3 = alloca ptr, align 8
  %4 = alloca i32, align 4
  %5 = alloca ptr, align 8
  %6 = alloca i32, align 4
  store ptr %0, ptr %3, align 8, !tbaa !163
  call void @llvm.lifetime.start.p0(i64 4, ptr %4) #10
  call void @llvm.lifetime.start.p0(i64 8, ptr %5) #10
  %7 = load ptr, ptr %3, align 8, !tbaa !163
  %8 = icmp ne ptr %7, null
  br i1 %8, label %10, label %9

9:                                                ; preds = %1
  call void (ptr, i32, i32, ptr, ptr, ptr, ...) @arkProcessError(ptr noundef null, i32 noundef -22, i32 noundef 1468, ptr noundef @__func__.arkCreate, ptr noundef @.str, ptr noundef @.str.80)
  store ptr null, ptr %2, align 8
  store i32 1, ptr %6, align 4
  br label %206

10:                                               ; preds = %1
  store ptr null, ptr %5, align 8, !tbaa !11
  %11 = call noalias ptr @malloc(i64 noundef 1048) #11
  store ptr %11, ptr %5, align 8, !tbaa !11
  %12 = load ptr, ptr %5, align 8, !tbaa !11
  %13 = icmp eq ptr %12, null
  br i1 %13, label %14, label %15

14:                                               ; preds = %10
  call void (ptr, i32, i32, ptr, ptr, ptr, ...) @arkProcessError(ptr noundef null, i32 noundef -20, i32 noundef 1477, ptr noundef @__func__.arkCreate, ptr noundef @.str, ptr noundef @.str.11)
  store ptr null, ptr %2, align 8
  store i32 1, ptr %6, align 4
  br label %206

15:                                               ; preds = %10
  %16 = load ptr, ptr %5, align 8, !tbaa !11
  call void @llvm.memset.p0.i64(ptr align 8 %16, i8 0, i64 1048, i1 false)
  %17 = load ptr, ptr %3, align 8, !tbaa !163
  %18 = load ptr, ptr %5, align 8, !tbaa !11
  %19 = getelementptr inbounds nuw %struct.ARKodeMemRec, ptr %18, i32 0, i32 0
  store ptr %17, ptr %19, align 8, !tbaa !49
  %20 = load ptr, ptr %5, align 8, !tbaa !11
  %21 = getelementptr inbounds nuw %struct.ARKodeMemRec, ptr %20, i32 0, i32 1
  store double 0x3CB0000000000000, ptr %21, align 8, !tbaa !28
  %22 = load ptr, ptr %5, align 8, !tbaa !11
  %23 = getelementptr inbounds nuw %struct.ARKodeMemRec, ptr %22, i32 0, i32 40
  store ptr null, ptr %23, align 8, !tbaa !164
  %24 = load ptr, ptr %5, align 8, !tbaa !11
  %25 = getelementptr inbounds nuw %struct.ARKodeMemRec, ptr %24, i32 0, i32 67
  store ptr null, ptr %25, align 8, !tbaa !165
  %26 = load ptr, ptr %5, align 8, !tbaa !11
  %27 = getelementptr inbounds nuw %struct.ARKodeMemRec, ptr %26, i32 0, i32 41
  store ptr null, ptr %27, align 8, !tbaa !166
  %28 = load ptr, ptr %5, align 8, !tbaa !11
  %29 = getelementptr inbounds nuw %struct.ARKodeMemRec, ptr %28, i32 0, i32 68
  store ptr null, ptr %29, align 8, !tbaa !167
  %30 = load ptr, ptr %5, align 8, !tbaa !11
  %31 = getelementptr inbounds nuw %struct.ARKodeMemRec, ptr %30, i32 0, i32 42
  store ptr null, ptr %31, align 8, !tbaa !168
  %32 = load ptr, ptr %5, align 8, !tbaa !11
  %33 = getelementptr inbounds nuw %struct.ARKodeMemRec, ptr %32, i32 0, i32 69
  store ptr null, ptr %33, align 8, !tbaa !169
  %34 = load ptr, ptr %5, align 8, !tbaa !11
  %35 = getelementptr inbounds nuw %struct.ARKodeMemRec, ptr %34, i32 0, i32 43
  store ptr null, ptr %35, align 8, !tbaa !170
  %36 = load ptr, ptr %5, align 8, !tbaa !11
  %37 = getelementptr inbounds nuw %struct.ARKodeMemRec, ptr %36, i32 0, i32 70
  store ptr null, ptr %37, align 8, !tbaa !100
  %38 = load ptr, ptr %5, align 8, !tbaa !11
  %39 = getelementptr inbounds nuw %struct.ARKodeMemRec, ptr %38, i32 0, i32 44
  store ptr null, ptr %39, align 8, !tbaa !171
  %40 = load ptr, ptr %5, align 8, !tbaa !11
  %41 = getelementptr inbounds nuw %struct.ARKodeMemRec, ptr %40, i32 0, i32 20
  store ptr null, ptr %41, align 8, !tbaa !129
  %42 = load ptr, ptr %5, align 8, !tbaa !11
  %43 = getelementptr inbounds nuw %struct.ARKodeMemRec, ptr %42, i32 0, i32 21
  store ptr null, ptr %43, align 8, !tbaa !132
  %44 = load ptr, ptr %5, align 8, !tbaa !11
  %45 = getelementptr inbounds nuw %struct.ARKodeMemRec, ptr %44, i32 0, i32 22
  store ptr null, ptr %45, align 8, !tbaa !118
  %46 = load ptr, ptr %5, align 8, !tbaa !11
  %47 = getelementptr inbounds nuw %struct.ARKodeMemRec, ptr %46, i32 0, i32 23
  store ptr null, ptr %47, align 8, !tbaa !172
  %48 = load ptr, ptr %5, align 8, !tbaa !11
  %49 = getelementptr inbounds nuw %struct.ARKodeMemRec, ptr %48, i32 0, i32 24
  store ptr null, ptr %49, align 8, !tbaa !173
  %50 = load ptr, ptr %5, align 8, !tbaa !11
  %51 = getelementptr inbounds nuw %struct.ARKodeMemRec, ptr %50, i32 0, i32 25
  store ptr null, ptr %51, align 8, !tbaa !174
  %52 = load ptr, ptr %5, align 8, !tbaa !11
  %53 = getelementptr inbounds nuw %struct.ARKodeMemRec, ptr %52, i32 0, i32 26
  store ptr null, ptr %53, align 8, !tbaa !46
  %54 = load ptr, ptr %5, align 8, !tbaa !11
  %55 = getelementptr inbounds nuw %struct.ARKodeMemRec, ptr %54, i32 0, i32 27
  store ptr null, ptr %55, align 8, !tbaa !58
  %56 = load ptr, ptr %5, align 8, !tbaa !11
  %57 = getelementptr inbounds nuw %struct.ARKodeMemRec, ptr %56, i32 0, i32 28
  store ptr null, ptr %57, align 8, !tbaa !152
  %58 = load ptr, ptr %5, align 8, !tbaa !11
  %59 = getelementptr inbounds nuw %struct.ARKodeMemRec, ptr %58, i32 0, i32 29
  store ptr null, ptr %59, align 8, !tbaa !157
  %60 = load ptr, ptr %5, align 8, !tbaa !11
  %61 = getelementptr inbounds nuw %struct.ARKodeMemRec, ptr %60, i32 0, i32 30
  store ptr null, ptr %61, align 8, !tbaa !175
  %62 = load ptr, ptr %5, align 8, !tbaa !11
  %63 = getelementptr inbounds nuw %struct.ARKodeMemRec, ptr %62, i32 0, i32 45
  store ptr null, ptr %63, align 8, !tbaa !176
  %64 = load ptr, ptr %5, align 8, !tbaa !11
  %65 = getelementptr inbounds nuw %struct.ARKodeMemRec, ptr %64, i32 0, i32 38
  store ptr null, ptr %65, align 8, !tbaa !177
  %66 = load ptr, ptr %5, align 8, !tbaa !11
  %67 = getelementptr inbounds nuw %struct.ARKodeMemRec, ptr %66, i32 0, i32 31
  store ptr null, ptr %67, align 8, !tbaa !178
  %68 = load ptr, ptr %5, align 8, !tbaa !11
  %69 = getelementptr inbounds nuw %struct.ARKodeMemRec, ptr %68, i32 0, i32 46
  store ptr null, ptr %69, align 8, !tbaa !179
  %70 = load ptr, ptr %5, align 8, !tbaa !11
  %71 = getelementptr inbounds nuw %struct.ARKodeMemRec, ptr %70, i32 0, i32 47
  store ptr null, ptr %71, align 8, !tbaa !180
  %72 = load ptr, ptr %5, align 8, !tbaa !11
  %73 = getelementptr inbounds nuw %struct.ARKodeMemRec, ptr %72, i32 0, i32 49
  store ptr null, ptr %73, align 8, !tbaa !181
  %74 = load ptr, ptr %5, align 8, !tbaa !11
  %75 = getelementptr inbounds nuw %struct.ARKodeMemRec, ptr %74, i32 0, i32 48
  store ptr null, ptr %75, align 8, !tbaa !182
  %76 = load ptr, ptr %5, align 8, !tbaa !11
  %77 = getelementptr inbounds nuw %struct.ARKodeMemRec, ptr %76, i32 0, i32 50
  store ptr null, ptr %77, align 8, !tbaa !183
  %78 = load ptr, ptr %5, align 8, !tbaa !11
  %79 = getelementptr inbounds nuw %struct.ARKodeMemRec, ptr %78, i32 0, i32 51
  store ptr null, ptr %79, align 8, !tbaa !184
  %80 = load ptr, ptr %5, align 8, !tbaa !11
  %81 = getelementptr inbounds nuw %struct.ARKodeMemRec, ptr %80, i32 0, i32 52
  store ptr null, ptr %81, align 8, !tbaa !185
  %82 = load ptr, ptr %5, align 8, !tbaa !11
  %83 = getelementptr inbounds nuw %struct.ARKodeMemRec, ptr %82, i32 0, i32 53
  store ptr null, ptr %83, align 8, !tbaa !186
  %84 = load ptr, ptr %5, align 8, !tbaa !11
  %85 = getelementptr inbounds nuw %struct.ARKodeMemRec, ptr %84, i32 0, i32 54
  store ptr null, ptr %85, align 8, !tbaa !187
  %86 = load ptr, ptr %5, align 8, !tbaa !11
  %87 = getelementptr inbounds nuw %struct.ARKodeMemRec, ptr %86, i32 0, i32 55
  store ptr null, ptr %87, align 8, !tbaa !188
  %88 = load ptr, ptr %5, align 8, !tbaa !11
  %89 = getelementptr inbounds nuw %struct.ARKodeMemRec, ptr %88, i32 0, i32 56
  store ptr null, ptr %89, align 8, !tbaa !189
  %90 = load ptr, ptr %5, align 8, !tbaa !11
  %91 = getelementptr inbounds nuw %struct.ARKodeMemRec, ptr %90, i32 0, i32 57
  store ptr null, ptr %91, align 8, !tbaa !190
  %92 = load ptr, ptr %5, align 8, !tbaa !11
  %93 = getelementptr inbounds nuw %struct.ARKodeMemRec, ptr %92, i32 0, i32 58
  store ptr null, ptr %93, align 8, !tbaa !191
  %94 = load ptr, ptr %5, align 8, !tbaa !11
  %95 = getelementptr inbounds nuw %struct.ARKodeMemRec, ptr %94, i32 0, i32 59
  store ptr null, ptr %95, align 8, !tbaa !192
  %96 = load ptr, ptr %5, align 8, !tbaa !11
  %97 = getelementptr inbounds nuw %struct.ARKodeMemRec, ptr %96, i32 0, i32 32
  store ptr null, ptr %97, align 8, !tbaa !193
  %98 = load ptr, ptr %5, align 8, !tbaa !11
  %99 = getelementptr inbounds nuw %struct.ARKodeMemRec, ptr %98, i32 0, i32 33
  store ptr null, ptr %99, align 8, !tbaa !194
  %100 = load ptr, ptr %5, align 8, !tbaa !11
  %101 = getelementptr inbounds nuw %struct.ARKodeMemRec, ptr %100, i32 0, i32 60
  store ptr null, ptr %101, align 8, !tbaa !195
  %102 = load ptr, ptr %5, align 8, !tbaa !11
  %103 = getelementptr inbounds nuw %struct.ARKodeMemRec, ptr %102, i32 0, i32 35
  store ptr null, ptr %103, align 8, !tbaa !196
  %104 = load ptr, ptr %5, align 8, !tbaa !11
  %105 = getelementptr inbounds nuw %struct.ARKodeMemRec, ptr %104, i32 0, i32 36
  store ptr null, ptr %105, align 8, !tbaa !197
  %106 = load ptr, ptr %5, align 8, !tbaa !11
  %107 = getelementptr inbounds nuw %struct.ARKodeMemRec, ptr %106, i32 0, i32 61
  store ptr null, ptr %107, align 8, !tbaa !198
  %108 = load ptr, ptr %5, align 8, !tbaa !11
  %109 = getelementptr inbounds nuw %struct.ARKodeMemRec, ptr %108, i32 0, i32 62
  store ptr null, ptr %109, align 8, !tbaa !199
  %110 = load ptr, ptr %5, align 8, !tbaa !11
  %111 = getelementptr inbounds nuw %struct.ARKodeMemRec, ptr %110, i32 0, i32 63
  store ptr null, ptr %111, align 8, !tbaa !200
  %112 = load ptr, ptr %5, align 8, !tbaa !11
  %113 = getelementptr inbounds nuw %struct.ARKodeMemRec, ptr %112, i32 0, i32 64
  store ptr null, ptr %113, align 8, !tbaa !201
  %114 = load ptr, ptr %5, align 8, !tbaa !11
  %115 = getelementptr inbounds nuw %struct.ARKodeMemRec, ptr %114, i32 0, i32 65
  store ptr null, ptr %115, align 8, !tbaa !202
  %116 = load ptr, ptr %5, align 8, !tbaa !11
  %117 = getelementptr inbounds nuw %struct.ARKodeMemRec, ptr %116, i32 0, i32 71
  store ptr null, ptr %117, align 8, !tbaa !160
  %118 = load ptr, ptr %5, align 8, !tbaa !11
  %119 = getelementptr inbounds nuw %struct.ARKodeMemRec, ptr %118, i32 0, i32 19
  store ptr null, ptr %119, align 8, !tbaa !203
  %120 = load ptr, ptr %5, align 8, !tbaa !11
  %121 = getelementptr inbounds nuw %struct.ARKodeMemRec, ptr %120, i32 0, i32 34
  store i32 0, ptr %121, align 8, !tbaa !204
  %122 = load ptr, ptr %5, align 8, !tbaa !11
  %123 = getelementptr inbounds nuw %struct.ARKodeMemRec, ptr %122, i32 0, i32 39
  store i32 0, ptr %123, align 8, !tbaa !205
  %124 = load ptr, ptr %5, align 8, !tbaa !11
  %125 = getelementptr inbounds nuw %struct.ARKodeMemRec, ptr %124, i32 0, i32 66
  store i32 0, ptr %125, align 8, !tbaa !94
  %126 = load ptr, ptr %5, align 8, !tbaa !11
  %127 = getelementptr inbounds nuw %struct.ARKodeMemRec, ptr %126, i32 0, i32 37
  store i32 0, ptr %127, align 8, !tbaa !206
  %128 = load ptr, ptr %5, align 8, !tbaa !11
  %129 = getelementptr inbounds nuw %struct.ARKodeMemRec, ptr %128, i32 0, i32 133
  store ptr null, ptr %129, align 8, !tbaa !107
  %130 = load ptr, ptr %5, align 8, !tbaa !11
  %131 = getelementptr inbounds nuw %struct.ARKodeMemRec, ptr %130, i32 0, i32 18
  store i32 0, ptr %131, align 8, !tbaa !42
  %132 = load ptr, ptr %5, align 8, !tbaa !11
  %133 = getelementptr inbounds nuw %struct.ARKodeMemRec, ptr %132, i32 0, i32 84
  store ptr null, ptr %133, align 8, !tbaa !128
  %134 = load ptr, ptr %5, align 8, !tbaa !11
  %135 = getelementptr inbounds nuw %struct.ARKodeMemRec, ptr %134, i32 0, i32 134
  store i32 0, ptr %135, align 8, !tbaa !119
  %136 = load ptr, ptr %5, align 8, !tbaa !11
  %137 = getelementptr inbounds nuw %struct.ARKodeMemRec, ptr %136, i32 0, i32 135
  store ptr null, ptr %137, align 8, !tbaa !154
  %138 = load ptr, ptr %5, align 8, !tbaa !11
  %139 = getelementptr inbounds nuw %struct.ARKodeMemRec, ptr %138, i32 0, i32 115
  store i64 18, ptr %139, align 8, !tbaa !91
  %140 = load ptr, ptr %5, align 8, !tbaa !11
  %141 = getelementptr inbounds nuw %struct.ARKodeMemRec, ptr %140, i32 0, i32 116
  store i64 53, ptr %141, align 8, !tbaa !92
  %142 = load ptr, ptr %5, align 8, !tbaa !11
  %143 = getelementptr inbounds nuw %struct.ARKodeMemRec, ptr %142, i32 0, i32 125
  store i32 0, ptr %143, align 8, !tbaa !87
  %144 = load ptr, ptr %5, align 8, !tbaa !11
  %145 = getelementptr inbounds nuw %struct.ARKodeMemRec, ptr %144, i32 0, i32 126
  store i32 0, ptr %145, align 4, !tbaa !101
  %146 = load ptr, ptr %5, align 8, !tbaa !11
  %147 = getelementptr inbounds nuw %struct.ARKodeMemRec, ptr %146, i32 0, i32 127
  store i32 0, ptr %147, align 8, !tbaa !13
  %148 = load ptr, ptr %5, align 8, !tbaa !11
  %149 = getelementptr inbounds nuw %struct.ARKodeMemRec, ptr %148, i32 0, i32 136
  store ptr null, ptr %149, align 8, !tbaa !150
  %150 = load ptr, ptr %5, align 8, !tbaa !11
  %151 = getelementptr inbounds nuw %struct.ARKodeMemRec, ptr %150, i32 0, i32 137
  store ptr null, ptr %151, align 8, !tbaa !151
  %152 = load ptr, ptr %5, align 8, !tbaa !11
  %153 = getelementptr inbounds nuw %struct.ARKodeMemRec, ptr %152, i32 0, i32 138
  store ptr null, ptr %153, align 8, !tbaa !207
  %154 = load ptr, ptr %5, align 8, !tbaa !11
  %155 = getelementptr inbounds nuw %struct.ARKodeMemRec, ptr %154, i32 0, i32 2
  store ptr null, ptr %155, align 8, !tbaa !93
  %156 = call ptr @arkAdaptInit()
  %157 = load ptr, ptr %5, align 8, !tbaa !11
  %158 = getelementptr inbounds nuw %struct.ARKodeMemRec, ptr %157, i32 0, i32 101
  store ptr %156, ptr %158, align 8, !tbaa !70
  %159 = load ptr, ptr %5, align 8, !tbaa !11
  %160 = getelementptr inbounds nuw %struct.ARKodeMemRec, ptr %159, i32 0, i32 101
  %161 = load ptr, ptr %160, align 8, !tbaa !70
  %162 = icmp eq ptr %161, null
  br i1 %162, label %163, label %164

163:                                              ; preds = %15
  call void (ptr, i32, i32, ptr, ptr, ptr, ...) @arkProcessError(ptr noundef null, i32 noundef -20, i32 noundef 1580, ptr noundef @__func__.arkCreate, ptr noundef @.str, ptr noundef @.str.81)
  call void @ARKodeFree(ptr noundef %5)
  store ptr null, ptr %2, align 8
  store i32 1, ptr %6, align 4
  br label %206

164:                                              ; preds = %15
  %165 = load ptr, ptr %5, align 8, !tbaa !11
  %166 = getelementptr inbounds nuw %struct.ARKodeMemRec, ptr %165, i32 0, i32 115
  %167 = load i64, ptr %166, align 8, !tbaa !91
  %168 = add nsw i64 %167, 10
  store i64 %168, ptr %166, align 8, !tbaa !91
  %169 = load ptr, ptr %5, align 8, !tbaa !11
  %170 = getelementptr inbounds nuw %struct.ARKodeMemRec, ptr %169, i32 0, i32 116
  %171 = load i64, ptr %170, align 8, !tbaa !92
  %172 = add nsw i64 %171, 7
  store i64 %172, ptr %170, align 8, !tbaa !92
  %173 = load ptr, ptr %5, align 8, !tbaa !11
  %174 = getelementptr inbounds nuw %struct.ARKodeMemRec, ptr %173, i32 0, i32 85
  store ptr null, ptr %174, align 8, !tbaa !39
  %175 = load ptr, ptr %5, align 8, !tbaa !11
  %176 = getelementptr inbounds nuw %struct.ARKodeMemRec, ptr %175, i32 0, i32 86
  store i32 0, ptr %176, align 8, !tbaa !130
  %177 = load ptr, ptr %5, align 8, !tbaa !11
  %178 = getelementptr inbounds nuw %struct.ARKodeMemRec, ptr %177, i32 0, i32 87
  store i32 5, ptr %178, align 4, !tbaa !131
  %179 = load ptr, ptr %5, align 8, !tbaa !11
  %180 = getelementptr inbounds nuw %struct.ARKodeMemRec, ptr %179, i32 0, i32 74
  store i32 1, ptr %180, align 8, !tbaa !55
  %181 = load ptr, ptr %5, align 8, !tbaa !11
  %182 = getelementptr inbounds nuw %struct.ARKodeMemRec, ptr %181, i32 0, i32 132
  store i32 0, ptr %182, align 4, !tbaa !77
  %183 = load ptr, ptr %5, align 8, !tbaa !11
  %184 = getelementptr inbounds nuw %struct.ARKodeMemRec, ptr %183, i32 0, i32 128
  store i32 1, ptr %184, align 4, !tbaa !43
  %185 = load ptr, ptr %5, align 8, !tbaa !11
  %186 = getelementptr inbounds nuw %struct.ARKodeMemRec, ptr %185, i32 0, i32 129
  store i32 0, ptr %186, align 8, !tbaa !44
  %187 = load ptr, ptr %5, align 8, !tbaa !11
  %188 = getelementptr inbounds nuw %struct.ARKodeMemRec, ptr %187, i32 0, i32 130
  store i32 1, ptr %188, align 4, !tbaa !45
  %189 = load ptr, ptr %5, align 8, !tbaa !11
  %190 = getelementptr inbounds nuw %struct.ARKodeMemRec, ptr %189, i32 0, i32 131
  store i32 0, ptr %190, align 8, !tbaa !59
  %191 = load ptr, ptr %5, align 8, !tbaa !11
  %192 = getelementptr inbounds nuw %struct.ARKodeMemRec, ptr %191, i32 0, i32 92
  store double 0.000000e+00, ptr %192, align 8, !tbaa !29
  %193 = load ptr, ptr %5, align 8, !tbaa !11
  %194 = getelementptr inbounds nuw %struct.ARKodeMemRec, ptr %193, i32 0, i32 117
  store double 0.000000e+00, ptr %194, align 8, !tbaa !66
  %195 = load ptr, ptr %5, align 8, !tbaa !11
  %196 = getelementptr inbounds nuw %struct.ARKodeMemRec, ptr %195, i32 0, i32 122
  store i32 0, ptr %196, align 8, !tbaa !149
  %197 = load ptr, ptr %5, align 8, !tbaa !11
  %198 = getelementptr inbounds nuw %struct.ARKodeMemRec, ptr %197, i32 0, i32 124
  store double 0.000000e+00, ptr %198, align 8, !tbaa !76
  %199 = load ptr, ptr %5, align 8, !tbaa !11
  %200 = call i32 @ARKodeSetDefaults(ptr noundef %199)
  store i32 %200, ptr %4, align 4, !tbaa !38
  %201 = load i32, ptr %4, align 4, !tbaa !38
  %202 = icmp ne i32 %201, 0
  br i1 %202, label %203, label %204

203:                                              ; preds = %164
  call void (ptr, i32, i32, ptr, ptr, ptr, ...) @arkProcessError(ptr noundef null, i32 noundef 0, i32 noundef 1619, ptr noundef @__func__.arkCreate, ptr noundef @.str, ptr noundef @.str.82)
  call void @ARKodeFree(ptr noundef %5)
  store ptr null, ptr %2, align 8
  store i32 1, ptr %6, align 4
  br label %206

204:                                              ; preds = %164
  %205 = load ptr, ptr %5, align 8, !tbaa !11
  store ptr %205, ptr %2, align 8
  store i32 1, ptr %6, align 4
  br label %206

206:                                              ; preds = %204, %203, %163, %14, %9
  call void @llvm.lifetime.end.p0(i64 8, ptr %5) #10
  call void @llvm.lifetime.end.p0(i64 4, ptr %4) #10
  %207 = load ptr, ptr %2, align 8
  ret ptr %207
}