; Function Attrs: nounwind uwtable
define noundef ptr @arkCreate(ptr noundef %0) local_unnamed_addr #0 {
  %2 = alloca ptr, align 8
  call void @llvm.lifetime.start.p0(i64 8, ptr nonnull %2) #16
  %.not = icmp eq ptr %0, null
  br i1 %.not, label %3, label %4

3:                                                ; preds = %1
  tail call void (ptr, i32, i32, ptr, ptr, ptr, ...) @arkProcessError(ptr noundef null, i32 noundef -22, i32 noundef 1468, ptr noundef nonnull @__func__.arkCreate, ptr noundef nonnull @.str, ptr noundef nonnull @.str.80)
  br label %35

4:                                                ; preds = %1
  %calloc = tail call dereferenceable_or_null(1048) ptr @calloc(i64 1, i64 1048)
  store ptr %calloc, ptr %2, align 8, !tbaa !167
  %5 = icmp eq ptr %calloc, null
  br i1 %5, label %6, label %7

6:                                                ; preds = %4
  tail call void (ptr, i32, i32, ptr, ptr, ptr, ...) @arkProcessError(ptr noundef null, i32 noundef -20, i32 noundef 1477, ptr noundef nonnull @__func__.arkCreate, ptr noundef nonnull @.str, ptr noundef nonnull @.str.11)
  br label %35

7:                                                ; preds = %4
  store ptr %0, ptr %calloc, align 8, !tbaa !41
  %8 = getelementptr inbounds nuw i8, ptr %calloc, i64 8
  store double 0x3CB0000000000000, ptr %8, align 8, !tbaa !23
  %9 = getelementptr inbounds nuw i8, ptr %calloc, i64 872
  store i64 18, ptr %9, align 8, !tbaa !53
  %10 = getelementptr inbounds nuw i8, ptr %calloc, i64 880
  store i64 53, ptr %10, align 8, !tbaa !54
  %11 = tail call ptr @arkAdaptInit() #16
  %12 = getelementptr inbounds nuw i8, ptr %calloc, i64 776
  store ptr %11, ptr %12, align 8, !tbaa !78
  %13 = icmp eq ptr %11, null
  br i1 %13, label %14, label %15

14:                                               ; preds = %7
  tail call void (ptr, i32, i32, ptr, ptr, ptr, ...) @arkProcessError(ptr noundef null, i32 noundef -20, i32 noundef 1580, ptr noundef nonnull @__func__.arkCreate, ptr noundef nonnull @.str, ptr noundef nonnull @.str.81)
  call void @ARKodeFree(ptr noundef nonnull %2)
  br label %35

15:                                               ; preds = %7
  %16 = load i64, ptr %9, align 8, !tbaa !53
  %17 = add nsw i64 %16, 10
  store i64 %17, ptr %9, align 8, !tbaa !53
  %18 = load i64, ptr %10, align 8, !tbaa !54
  %19 = add nsw i64 %18, 7
  store i64 %19, ptr %10, align 8, !tbaa !54
  %20 = getelementptr inbounds nuw i8, ptr %calloc, i64 664
  store ptr null, ptr %20, align 8, !tbaa !33
  %21 = getelementptr inbounds nuw i8, ptr %calloc, i64 672
  store i32 0, ptr %21, align 8, !tbaa !138
  %22 = getelementptr inbounds nuw i8, ptr %calloc, i64 676
  store i32 5, ptr %22, align 4, !tbaa !139
  %23 = getelementptr inbounds nuw i8, ptr %calloc, i64 576
  store i32 1, ptr %23, align 8, !tbaa !55
  %24 = getelementptr inbounds nuw i8, ptr %calloc, i64 980
  store i32 0, ptr %24, align 4, !tbaa !83
  %25 = getelementptr inbounds nuw i8, ptr %calloc, i64 964
  store i32 1, ptr %25, align 4, !tbaa !37
  %26 = getelementptr inbounds nuw i8, ptr %calloc, i64 968
  store i32 0, ptr %26, align 8, !tbaa !38
  %27 = getelementptr inbounds nuw i8, ptr %calloc, i64 972
  store i32 1, ptr %27, align 4, !tbaa !39
  %28 = getelementptr inbounds nuw i8, ptr %calloc, i64 976
  store i32 0, ptr %28, align 8, !tbaa !59
  %29 = getelementptr inbounds nuw i8, ptr %calloc, i64 704
  store double 0.000000e+00, ptr %29, align 8, !tbaa !24
  %30 = getelementptr inbounds nuw i8, ptr %calloc, i64 888
  store double 0.000000e+00, ptr %30, align 8, !tbaa !74
  %31 = getelementptr inbounds nuw i8, ptr %calloc, i64 928
  store i32 0, ptr %31, align 8, !tbaa !154
  %32 = getelementptr inbounds nuw i8, ptr %calloc, i64 944
  store double 0.000000e+00, ptr %32, align 8, !tbaa !82
  %33 = tail call i32 @ARKodeSetDefaults(ptr noundef nonnull %calloc) #16
  %.not5 = icmp eq i32 %33, 0
  br i1 %.not5, label %35, label %34

34:                                               ; preds = %15
  tail call void (ptr, i32, i32, ptr, ptr, ptr, ...) @arkProcessError(ptr noundef null, i32 noundef 0, i32 noundef 1619, ptr noundef nonnull @__func__.arkCreate, ptr noundef nonnull @.str, ptr noundef nonnull @.str.82)
  call void @ARKodeFree(ptr noundef nonnull %2)
  br label %35

35:                                               ; preds = %15, %34, %14, %6, %3
  %.0 = phi ptr [ null, %6 ], [ null, %14 ], [ null, %34 ], [ null, %3 ], [ %calloc, %15 ]
  call void @llvm.lifetime.end.p0(i64 8, ptr nonnull %2) #16
  ret ptr %.0
}